; ModuleID = '7/1079.c'
source_filename = "7/1079.c"
target datalayout = "e-m:e-p270:32:32-p271:32:32-p272:64:64-i64:64-f80:128-n8:16:32:64-S128"
target triple = "x86_64-pc-linux-gnu"

@.str = private unnamed_addr constant [3 x i8] c"%s\00", align 1

; Function Attrs: noinline nounwind uwtable
define dso_local i32 @main() #0 {
  %1 = alloca i32, align 4
  %2 = alloca [257 x i8], align 16
  %3 = alloca [257 x i8], align 16
  %4 = alloca [257 x i8], align 16
  %5 = alloca i32, align 4
  %6 = alloca i32, align 4
  %7 = alloca i32, align 4
  %8 = alloca i32, align 4
  %9 = alloca i32, align 4
  %10 = alloca i32, align 4
  %11 = alloca i32, align 4
  %12 = alloca i32, align 4
  store i32 0, i32* %1, align 4
  store i32 0, i32* %11, align 4
  store i32 0, i32* %12, align 4
  %13 = getelementptr inbounds [257 x i8], [257 x i8]* %2, i64 0, i64 0
  %14 = call i32 (i8*, ...) @__isoc99_scanf(i8* getelementptr inbounds ([3 x i8], [3 x i8]* @.str, i64 0, i64 0), i8* %13)
  %15 = getelementptr inbounds [257 x i8], [257 x i8]* %3, i64 0, i64 0
  %16 = call i32 (i8*, ...) @__isoc99_scanf(i8* getelementptr inbounds ([3 x i8], [3 x i8]* @.str, i64 0, i64 0), i8* %15)
  %17 = getelementptr inbounds [257 x i8], [257 x i8]* %4, i64 0, i64 0
  %18 = call i32 (i8*, ...) @__isoc99_scanf(i8* getelementptr inbounds ([3 x i8], [3 x i8]* @.str, i64 0, i64 0), i8* %17)
  %19 = getelementptr inbounds [257 x i8], [257 x i8]* %2, i64 0, i64 0
  %20 = call i64 @strlen(i8* %19) #3
  %21 = trunc i64 %20 to i32
  store i32 %21, i32* %6, align 4
  %22 = getelementptr inbounds [257 x i8], [257 x i8]* %3, i64 0, i64 0
  %23 = call i64 @strlen(i8* %22) #3
  %24 = trunc i64 %23 to i32
  store i32 %24, i32* %7, align 4
  %25 = getelementptr inbounds [257 x i8], [257 x i8]* %4, i64 0, i64 0
  %26 = call i64 @strlen(i8* %25) #3
  %27 = trunc i64 %26 to i32
  store i32 %27, i32* %8, align 4
  store i32 0, i32* %5, align 4
  br label %28

28:                                               ; preds = %107, %0
  %29 = load i32, i32* %5, align 4
  %30 = load i32, i32* %6, align 4
  %31 = icmp slt i32 %29, %30
  br i1 %31, label %32, label %110

32:                                               ; preds = %28
  %33 = load i32, i32* %5, align 4
  %34 = sext i32 %33 to i64
  %35 = getelementptr inbounds [257 x i8], [257 x i8]* %2, i64 0, i64 %34
  %36 = load i8, i8* %35, align 1
  %37 = sext i8 %36 to i32
  %38 = getelementptr inbounds [257 x i8], [257 x i8]* %3, i64 0, i64 0
  %39 = load i8, i8* %38, align 16
  %40 = sext i8 %39 to i32
  %41 = icmp eq i32 %37, %40
  br i1 %41, label %42, label %106

42:                                               ; preds = %32
  store i32 0, i32* %9, align 4
  br label %43

43:                                               ; preds = %63, %42
  %44 = load i32, i32* %9, align 4
  %45 = load i32, i32* %7, align 4
  %46 = icmp slt i32 %44, %45
  br i1 %46, label %47, label %66

47:                                               ; preds = %43
  %48 = load i32, i32* %5, align 4
  %49 = load i32, i32* %9, align 4
  %50 = add nsw i32 %48, %49
  %51 = sext i32 %50 to i64
  %52 = getelementptr inbounds [257 x i8], [257 x i8]* %2, i64 0, i64 %51
  %53 = load i8, i8* %52, align 1
  %54 = sext i8 %53 to i32
  %55 = load i32, i32* %9, align 4
  %56 = sext i32 %55 to i64
  %57 = getelementptr inbounds [257 x i8], [257 x i8]* %3, i64 0, i64 %56
  %58 = load i8, i8* %57, align 1
  %59 = sext i8 %58 to i32
  %60 = icmp ne i32 %54, %59
  br i1 %60, label %61, label %62

61:                                               ; preds = %47
  br label %66

62:                                               ; preds = %47
  br label %63

63:                                               ; preds = %62
  %64 = load i32, i32* %9, align 4
  %65 = add nsw i32 %64, 1
  store i32 %65, i32* %9, align 4
  br label %43

66:                                               ; preds = %61, %43
  %67 = load i32, i32* %9, align 4
  %68 = load i32, i32* %7, align 4
  %69 = icmp eq i32 %67, %68
  br i1 %69, label %70, label %105

70:                                               ; preds = %66
  store i32 1, i32* %12, align 4
  %71 = load i32, i32* %5, align 4
  store i32 %71, i32* %10, align 4
  br label %72

72:                                               ; preds = %99, %70
  %73 = load i32, i32* %10, align 4
  %74 = load i32, i32* %5, align 4
  %75 = load i32, i32* %8, align 4
  %76 = add nsw i32 %74, %75
  %77 = icmp slt i32 %73, %76
  br i1 %77, label %78, label %102

78:                                               ; preds = %72
  %79 = load i32, i32* %10, align 4
  %80 = load i32, i32* %7, align 4
  %81 = add nsw i32 %79, %80
  %82 = sext i32 %81 to i64
  %83 = getelementptr inbounds [257 x i8], [257 x i8]* %2, i64 0, i64 %82
  %84 = load i8, i8* %83, align 1
  %85 = load i32, i32* %10, align 4
  %86 = load i32, i32* %8, align 4
  %87 = add nsw i32 %85, %86
  %88 = sext i32 %87 to i64
  %89 = getelementptr inbounds [257 x i8], [257 x i8]* %2, i64 0, i64 %88
  store i8 %84, i8* %89, align 1
  %90 = load i32, i32* %11, align 4
  %91 = sext i32 %90 to i64
  %92 = getelementptr inbounds [257 x i8], [257 x i8]* %4, i64 0, i64 %91
  %93 = load i8, i8* %92, align 1
  %94 = load i32, i32* %10, align 4
  %95 = sext i32 %94 to i64
  %96 = getelementptr inbounds [257 x i8], [257 x i8]* %2, i64 0, i64 %95
  store i8 %93, i8* %96, align 1
  %97 = load i32, i32* %11, align 4
  %98 = add nsw i32 %97, 1
  store i32 %98, i32* %11, align 4
  br label %99

99:                                               ; preds = %78
  %100 = load i32, i32* %10, align 4
  %101 = add nsw i32 %100, 1
  store i32 %101, i32* %10, align 4
  br label %72

102:                                              ; preds = %72
  %103 = getelementptr inbounds [257 x i8], [257 x i8]* %2, i64 0, i64 0
  %104 = call i32 (i8*, ...) @printf(i8* getelementptr inbounds ([3 x i8], [3 x i8]* @.str, i64 0, i64 0), i8* %103)
  br label %110

105:                                              ; preds = %66
  br label %106

106:                                              ; preds = %105, %32
  br label %107

107:                                              ; preds = %106
  %108 = load i32, i32* %5, align 4
  %109 = add nsw i32 %108, 1
  store i32 %109, i32* %5, align 4
  br label %28

110:                                              ; preds = %102, %28
  %111 = load i32, i32* %12, align 4
  %112 = icmp eq i32 %111, 0
  br i1 %112, label %113, label %116

113:                                              ; preds = %110
  %114 = getelementptr inbounds [257 x i8], [257 x i8]* %2, i64 0, i64 0
  %115 = call i32 (i8*, ...) @printf(i8* getelementptr inbounds ([3 x i8], [3 x i8]* @.str, i64 0, i64 0), i8* %114)
  br label %116

116:                                              ; preds = %113, %110
  ret i32 0
}

declare dso_local i32 @__isoc99_scanf(i8*, ...) #1

; Function Attrs: nounwind readonly
declare dso_local i64 @strlen(i8*) #2

declare dso_local i32 @printf(i8*, ...) #1


!llvm.module.flags = !{!0}
!llvm.ident = !{!1}

!0 = !{i32 1, !"wchar_size", i32 4}
!1 = !{!"clang version 10.0.0-4ubuntu1 "}
